target datalayout = "e-m:e-p270:32:32-p271:32:32-p272:64:64-i64:64-i128:128-f80:128-n8:16:32:64-S128"
target triple = "x86_64-pc-linux-gnu"

%struct.archive_read = type { %struct.archive, ptr, i32, i64, i64, %struct.archive_read_client, [16 x %struct.archive_read_filter_bidder], ptr, i32, i64, i32, i32, [16 x %struct.archive_format_descriptor], ptr, ptr, ptr, %struct.anon }
%struct.archive = type { i32, i32, ptr, i32, ptr, i32, i32, ptr, %struct.archive_string, ptr, i32, i32, ptr, ptr, i64, i64, i64, i8, i64 }
%struct.archive_string = type { ptr, i64, i64 }
%struct.archive_read_client = type { ptr, ptr, ptr, ptr, ptr, ptr, i32, i32, i64, ptr }
%struct.archive_read_filter_bidder = type { ptr, ptr, ptr }
%struct.archive_format_descriptor = type { ptr, ptr, ptr, ptr, ptr, ptr, ptr, ptr, ptr, ptr, ptr }
%struct.anon = type { ptr, ptr, i32, ptr, ptr }
%struct.rar = type { i32, i64, [2 x i8], [4 x i8], i8, i8, i32, i64, i64, i64, i64, i32, ptr, ptr, i64, i64, [8 x i8], i64, i64, i64, i64, i64, i64, i64, i64, i64, i64, i64, i64, i8, i32, i32, ptr, i32, i8, i8, i64, i32, i8, ptr, i32, i32, i8, %struct.huffman_code, %struct.huffman_code, %struct.huffman_code, %struct.huffman_code, [404 x i8], %struct.lzss, i32, i32, [4 x i32], i32, i32, i8, %struct.rar_filters, i8, i8, i8, i32, %struct.CPpmd7, %struct.CPpmd7z_RangeDec, %struct.IByteIn, i32, ptr, ptr, ptr, ptr, %struct.rar_br, i32 }
%struct.huffman_code = type { ptr, i32, i32, i32, i32, i32, ptr }
%struct.lzss = type { ptr, i32, i64 }
%struct.rar_filters = type { ptr, ptr, ptr, i64, i32, i64, ptr, i64 }
%struct.CPpmd7 = type { ptr, ptr, ptr, i32, i32, i32, i32, i32, i32, i32, i32, i32, ptr, ptr, ptr, ptr, ptr, i32, [38 x i8], [128 x i8], [38 x i32], [256 x i8], [256 x i8], [256 x i8], %struct.CPpmd_See, [25 x [16 x %struct.CPpmd_See]], [128 x [64 x i16]] }
%struct.CPpmd_See = type { i16, i8, i8 }
%struct.CPpmd7z_RangeDec = type { %struct.IPpmd7_RangeDec, i32, i32, i32, i32, ptr }
%struct.IPpmd7_RangeDec = type { ptr, ptr, ptr }
%struct.IByteIn = type { ptr, ptr }
%struct.rar_br = type { i64, i32, i64, ptr }

@.str.36 = private unnamed_addr constant [49 x i8] c"Unable to allocate memory for uncompressed data.\00", align 1
@.str.37 = private unnamed_addr constant [18 x i8] c"Bad RAR file data\00", align 1

; Function Attrs: nounwind uwtable
define internal i32 @lzss_size(ptr noundef %0) #0 {
  %2 = alloca ptr, align 8
  store ptr %0, ptr %2, align 8
  %3 = load ptr, ptr %2, align 8
  %4 = getelementptr inbounds %struct.lzss, ptr %3, i32 0, i32 1
  %5 = load i32, ptr %4, align 8
  %6 = add nsw i32 %5, 1
  ret i32 %6
}

; Function Attrs: nounwind uwtable
define internal i32 @lzss_offset_for_position(ptr noundef %0, i64 noundef %1) #0 {
  %3 = alloca ptr, align 8
  %4 = alloca i64, align 8
  store ptr %0, ptr %3, align 8
  store i64 %1, ptr %4, align 8
  %5 = load i64, ptr %4, align 8
  %6 = load ptr, ptr %3, align 8
  %7 = getelementptr inbounds %struct.lzss, ptr %6, i32 0, i32 1
  %8 = load i32, ptr %7, align 8
  %9 = sext i32 %8 to i64
  %10 = and i64 %5, %9
  %11 = trunc i64 %10 to i32
  ret i32 %11
}

; Function Attrs: nounwind uwtable
define internal i32 @copy_from_lzss_window_to_unp(ptr noundef %0, ptr noundef %1, i64 noundef %2, i32 noundef %3) #0 {
  %5 = alloca i32, align 4
  %6 = alloca ptr, align 8
  %7 = alloca ptr, align 8
  %8 = alloca i64, align 8
  %9 = alloca i32, align 4
  %10 = alloca i32, align 4
  %11 = alloca i32, align 4
  %12 = alloca ptr, align 8
  store ptr %0, ptr %6, align 8
  store ptr %1, ptr %7, align 8
  store i64 %2, ptr %8, align 8
  store i32 %3, ptr %9, align 4
  %13 = load ptr, ptr %6, align 8
  %14 = getelementptr inbounds %struct.archive_read, ptr %13, i32 0, i32 13
  %15 = load ptr, ptr %14, align 8
  %16 = getelementptr inbounds %struct.archive_format_descriptor, ptr %15, i32 0, i32 0
  %17 = load ptr, ptr %16, align 8
  store ptr %17, ptr %12, align 8
  %18 = load ptr, ptr %12, align 8
  %19 = getelementptr inbounds %struct.rar, ptr %18, i32 0, i32 32
  %20 = load ptr, ptr %19, align 8
  %21 = icmp ne ptr %20, null
  br i1 %21, label %35, label %22

22:                                               ; preds = %4
  %23 = load ptr, ptr %12, align 8
  %24 = getelementptr inbounds %struct.rar, ptr %23, i32 0, i32 31
  %25 = load i32, ptr %24, align 8
  %26 = zext i32 %25 to i64
  %27 = call noalias ptr @malloc(i64 noundef %26) #16
  %28 = load ptr, ptr %12, align 8
  %29 = getelementptr inbounds %struct.rar, ptr %28, i32 0, i32 32
  store ptr %27, ptr %29, align 8
  %30 = icmp eq ptr %27, null
  br i1 %30, label %31, label %34

31:                                               ; preds = %22
  %32 = load ptr, ptr %6, align 8
  %33 = getelementptr inbounds %struct.archive_read, ptr %32, i32 0, i32 0
  call void (ptr, i32, ptr, ...) @archive_set_error(ptr noundef %33, i32 noundef 12, ptr noundef @.str.36)
  store i32 -30, ptr %5, align 4
  br label %167

34:                                               ; preds = %22
  br label %35

35:                                               ; preds = %34, %4
  %36 = load ptr, ptr %12, align 8
  %37 = getelementptr inbounds %struct.rar, ptr %36, i32 0, i32 48
  %38 = load i64, ptr %8, align 8
  %39 = call i32 @lzss_offset_for_position(ptr noundef %37, i64 noundef %38)
  store i32 %39, ptr %10, align 4
  %40 = load i32, ptr %10, align 4
  %41 = load i32, ptr %9, align 4
  %42 = add nsw i32 %40, %41
  %43 = load ptr, ptr %12, align 8
  %44 = getelementptr inbounds %struct.rar, ptr %43, i32 0, i32 48
  %45 = call i32 @lzss_size(ptr noundef %44)
  %46 = icmp sle i32 %42, %45
  br i1 %46, label %47, label %65

47:                                               ; preds = %35
  %48 = load ptr, ptr %12, align 8
  %49 = getelementptr inbounds %struct.rar, ptr %48, i32 0, i32 32
  %50 = load ptr, ptr %49, align 8
  %51 = load ptr, ptr %12, align 8
  %52 = getelementptr inbounds %struct.rar, ptr %51, i32 0, i32 30
  %53 = load i32, ptr %52, align 4
  %54 = zext i32 %53 to i64
  %55 = getelementptr inbounds i8, ptr %50, i64 %54
  %56 = load ptr, ptr %12, align 8
  %57 = getelementptr inbounds %struct.rar, ptr %56, i32 0, i32 48
  %58 = getelementptr inbounds %struct.lzss, ptr %57, i32 0, i32 0
  %59 = load ptr, ptr %58, align 8
  %60 = load i32, ptr %10, align 4
  %61 = sext i32 %60 to i64
  %62 = getelementptr inbounds i8, ptr %59, i64 %61
  %63 = load i32, ptr %9, align 4
  %64 = sext i32 %63 to i64
  call void @llvm.memcpy.p0.p0.i64(ptr align 1 %55, ptr align 1 %62, i64 %64, i1 false)
  br label %146

65:                                               ; preds = %35
  %66 = load i32, ptr %9, align 4
  %67 = load ptr, ptr %12, align 8
  %68 = getelementptr inbounds %struct.rar, ptr %67, i32 0, i32 48
  %69 = call i32 @lzss_size(ptr noundef %68)
  %70 = icmp sle i32 %66, %69
  br i1 %70, label %71, label %142

71:                                               ; preds = %65
  %72 = load ptr, ptr %12, align 8
  %73 = getelementptr inbounds %struct.rar, ptr %72, i32 0, i32 48
  %74 = call i32 @lzss_size(ptr noundef %73)
  %75 = load i32, ptr %10, align 4
  %76 = sub nsw i32 %74, %75
  store i32 %76, ptr %11, align 4
  %77 = load i32, ptr %11, align 4
  %78 = icmp slt i32 %77, 0
  br i1 %78, label %79, label %82

79:                                               ; preds = %71
  %80 = load ptr, ptr %6, align 8
  %81 = getelementptr inbounds %struct.archive_read, ptr %80, i32 0, i32 0
  call void (ptr, i32, ptr, ...) @archive_set_error(ptr noundef %81, i32 noundef 84, ptr noundef @.str.37)
  store i32 -30, ptr %5, align 4
  br label %167

82:                                               ; preds = %71
  %83 = load i32, ptr %11, align 4
  %84 = load i32, ptr %9, align 4
  %85 = icmp slt i32 %83, %84
  br i1 %85, label %86, label %123

86:                                               ; preds = %82
  %87 = load ptr, ptr %12, align 8
  %88 = getelementptr inbounds %struct.rar, ptr %87, i32 0, i32 32
  %89 = load ptr, ptr %88, align 8
  %90 = load ptr, ptr %12, align 8
  %91 = getelementptr inbounds %struct.rar, ptr %90, i32 0, i32 30
  %92 = load i32, ptr %91, align 4
  %93 = zext i32 %92 to i64
  %94 = getelementptr inbounds i8, ptr %89, i64 %93
  %95 = load ptr, ptr %12, align 8
  %96 = getelementptr inbounds %struct.rar, ptr %95, i32 0, i32 48
  %97 = getelementptr inbounds %struct.lzss, ptr %96, i32 0, i32 0
  %98 = load ptr, ptr %97, align 8
  %99 = load i32, ptr %10, align 4
  %100 = sext i32 %99 to i64
  %101 = getelementptr inbounds i8, ptr %98, i64 %100
  %102 = load i32, ptr %11, align 4
  %103 = sext i32 %102 to i64
  call void @llvm.memcpy.p0.p0.i64(ptr align 1 %94, ptr align 1 %101, i64 %103, i1 false)
  %104 = load ptr, ptr %12, align 8
  %105 = getelementptr inbounds %struct.rar, ptr %104, i32 0, i32 32
  %106 = load ptr, ptr %105, align 8
  %107 = load ptr, ptr %12, align 8
  %108 = getelementptr inbounds %struct.rar, ptr %107, i32 0, i32 30
  %109 = load i32, ptr %108, align 4
  %110 = load i32, ptr %11, align 4
  %111 = add i32 %109, %110
  %112 = zext i32 %111 to i64
  %113 = getelementptr inbounds i8, ptr %106, i64 %112
  %114 = load ptr, ptr %12, align 8
  %115 = getelementptr inbounds %struct.rar, ptr %114, i32 0, i32 48
  %116 = getelementptr inbounds %struct.lzss, ptr %115, i32 0, i32 0
  %117 = load ptr, ptr %116, align 8
  %118 = getelementptr inbounds i8, ptr %117, i64 0
  %119 = load i32, ptr %9, align 4
  %120 = load i32, ptr %11, align 4
  %121 = sub nsw i32 %119, %120
  %122 = sext i32 %121 to i64
  call void @llvm.memcpy.p0.p0.i64(ptr align 1 %113, ptr align 1 %118, i64 %122, i1 false)
  br label %141

123:                                              ; preds = %82
  %124 = load ptr, ptr %12, align 8
  %125 = getelementptr inbounds %struct.rar, ptr %124, i32 0, i32 32
  %126 = load ptr, ptr %125, align 8
  %127 = load ptr, ptr %12, align 8
  %128 = getelementptr inbounds %struct.rar, ptr %127, i32 0, i32 30
  %129 = load i32, ptr %128, align 4
  %130 = zext i32 %129 to i64
  %131 = getelementptr inbounds i8, ptr %126, i64 %130
  %132 = load ptr, ptr %12, align 8
  %133 = getelementptr inbounds %struct.rar, ptr %132, i32 0, i32 48
  %134 = getelementptr inbounds %struct.lzss, ptr %133, i32 0, i32 0
  %135 = load ptr, ptr %134, align 8
  %136 = load i32, ptr %10, align 4
  %137 = sext i32 %136 to i64
  %138 = getelementptr inbounds i8, ptr %135, i64 %137
  %139 = load i32, ptr %9, align 4
  %140 = sext i32 %139 to i64
  call void @llvm.memcpy.p0.p0.i64(ptr align 1 %131, ptr align 1 %138, i64 %140, i1 false)
  br label %141

141:                                              ; preds = %123, %86
  br label %145

142:                                              ; preds = %65
  %143 = load ptr, ptr %6, align 8
  %144 = getelementptr inbounds %struct.archive_read, ptr %143, i32 0, i32 0
  call void (ptr, i32, ptr, ...) @archive_set_error(ptr noundef %144, i32 noundef 84, ptr noundef @.str.37)
  store i32 -30, ptr %5, align 4
  br label %167

145:                                              ; preds = %141
  br label %146

146:                                              ; preds = %145, %47
  %147 = load i32, ptr %9, align 4
  %148 = load ptr, ptr %12, align 8
  %149 = getelementptr inbounds %struct.rar, ptr %148, i32 0, i32 30
  %150 = load i32, ptr %149, align 4
  %151 = add i32 %150, %147
  store i32 %151, ptr %149, align 4
  %152 = load ptr, ptr %12, align 8
  %153 = getelementptr inbounds %struct.rar, ptr %152, i32 0, i32 30
  %154 = load i32, ptr %153, align 4
  %155 = load ptr, ptr %12, align 8
  %156 = getelementptr inbounds %struct.rar, ptr %155, i32 0, i32 31
  %157 = load i32, ptr %156, align 8
  %158 = icmp uge i32 %154, %157
  br i1 %158, label %159, label %164

159:                                              ; preds = %146
  %160 = load ptr, ptr %12, align 8
  %161 = getelementptr inbounds %struct.rar, ptr %160, i32 0, i32 32
  %162 = load ptr, ptr %161, align 8
  %163 = load ptr, ptr %7, align 8
  store ptr %162, ptr %163, align 8
  br label %166

164:                                              ; preds = %146
  %165 = load ptr, ptr %7, align 8
  store ptr null, ptr %165, align 8
  br label %166

166:                                              ; preds = %164, %159
  store i32 0, ptr %5, align 4
  br label %167

167:                                              ; preds = %166, %142, %79, %31
  %168 = load i32, ptr %5, align 4
  ret i32 %168
}