; Function Attrs: nounwind uwtable
define internal fastcc range(i32 -30, 1) i32 @copy_from_lzss_window_to_unp(ptr noundef %0, ptr noundef writeonly captures(none) %1, i64 noundef %2, i32 noundef %3) unnamed_addr #0 {
  %5 = getelementptr inbounds nuw i8, ptr %0, i64 2072
  %6 = load ptr, ptr %5, align 8
  %7 = load ptr, ptr %6, align 8
  %8 = getelementptr inbounds nuw i8, ptr %7, i64 224
  %9 = load ptr, ptr %8, align 8
  %.not = icmp eq ptr %9, null
  br i1 %.not, label %10, label %17

10:                                               ; preds = %4
  %11 = getelementptr inbounds nuw i8, ptr %7, i64 216
  %12 = load i32, ptr %11, align 8
  %13 = zext i32 %12 to i64
  %14 = tail call noalias ptr @malloc(i64 noundef %13) #24
  store ptr %14, ptr %8, align 8
  %15 = icmp eq ptr %14, null
  br i1 %15, label %16, label %17

16:                                               ; preds = %10
  tail call void (ptr, i32, ptr, ...) @archive_set_error(ptr noundef nonnull %0, i32 noundef 12, ptr noundef nonnull @.str.36) #19
  br label %66

17:                                               ; preds = %10, %4
  %18 = phi ptr [ %14, %10 ], [ %9, %4 ]
  %19 = getelementptr inbounds nuw i8, ptr %7, i64 848
  %20 = getelementptr i8, ptr %7, i64 856
  %.val = load i32, ptr %20, align 8
  %21 = trunc i64 %2 to i32
  %22 = and i32 %.val, %21
  %23 = add nsw i32 %22, %3
  %24 = add nsw i32 %.val, 1
  %.not49 = icmp sgt i32 %23, %24
  br i1 %.not49, label %34, label %25

25:                                               ; preds = %17
  %26 = getelementptr inbounds nuw i8, ptr %7, i64 212
  %27 = load i32, ptr %26, align 4
  %28 = zext i32 %27 to i64
  %29 = getelementptr inbounds nuw i8, ptr %18, i64 %28
  %30 = load ptr, ptr %19, align 8
  %31 = sext i32 %22 to i64
  %32 = getelementptr inbounds i8, ptr %30, i64 %31
  %33 = sext i32 %3 to i64
  tail call void @llvm.memcpy.p0.p0.i64(ptr nonnull align 1 %29, ptr align 1 %32, i64 %33, i1 false)
  br label %57

34:                                               ; preds = %17
  %.not50 = icmp sgt i32 %3, %24
  br i1 %.not50, label %56, label %35

35:                                               ; preds = %34
  %36 = sub nsw i32 %24, %22
  %37 = icmp slt i32 %36, 0
  br i1 %37, label %38, label %39

38:                                               ; preds = %35
  tail call void (ptr, i32, ptr, ...) @archive_set_error(ptr noundef nonnull %0, i32 noundef 84, ptr noundef nonnull @.str.37) #19
  br label %66

39:                                               ; preds = %35
  %40 = getelementptr inbounds nuw i8, ptr %7, i64 212
  %41 = load i32, ptr %40, align 4
  %42 = zext i32 %41 to i64
  %43 = getelementptr inbounds nuw i8, ptr %18, i64 %42
  %44 = load ptr, ptr %19, align 8
  %45 = sext i32 %22 to i64
  %46 = getelementptr inbounds i8, ptr %44, i64 %45
  %47 = zext nneg i32 %36 to i64
  tail call void @llvm.memcpy.p0.p0.i64(ptr nonnull align 1 %43, ptr align 1 %46, i64 %47, i1 false)
  %48 = load ptr, ptr %8, align 8
  %49 = load i32, ptr %40, align 4
  %50 = add i32 %49, %36
  %51 = zext i32 %50 to i64
  %52 = getelementptr inbounds nuw i8, ptr %48, i64 %51
  %53 = load ptr, ptr %19, align 8
  %54 = sub nsw i32 %3, %36
  %55 = sext i32 %54 to i64
  tail call void @llvm.memcpy.p0.p0.i64(ptr align 1 %52, ptr align 1 %53, i64 %55, i1 false)
  br label %57

56:                                               ; preds = %34
  tail call void (ptr, i32, ptr, ...) @archive_set_error(ptr noundef nonnull %0, i32 noundef 84, ptr noundef nonnull @.str.37) #19
  br label %66

57:                                               ; preds = %39, %25
  %58 = getelementptr inbounds nuw i8, ptr %7, i64 212
  %59 = load i32, ptr %58, align 4
  %60 = add i32 %59, %3
  store i32 %60, ptr %58, align 4
  %61 = getelementptr inbounds nuw i8, ptr %7, i64 216
  %62 = load i32, ptr %61, align 8
  %.not51 = icmp ult i32 %60, %62
  br i1 %.not51, label %65, label %63

63:                                               ; preds = %57
  %64 = load ptr, ptr %8, align 8
  br label %65

65:                                               ; preds = %57, %63
  %storemerge = phi ptr [ %64, %63 ], [ null, %57 ]
  store ptr %storemerge, ptr %1, align 8
  br label %66

66:                                               ; preds = %65, %56, %38, %16
  %.0 = phi i32 [ 0, %65 ], [ -30, %38 ], [ -30, %56 ], [ -30, %16 ]
  ret i32 %.0
}